target datalayout = "e-m:e-p270:32:32-p271:32:32-p272:64:64-i64:64-i128:128-f80:128-n8:16:32:64-S128"
target triple = "x86_64-pc-linux-gnu"

%struct.eio_obj = type { i32, ptr, ptr, i8 }
%struct.server_io_info = type { ptr, i32, i8, %struct.io_hdr_t, ptr, i32, i8, i32, i32, ptr, ptr, i32, i8 }
%struct.io_hdr_t = type { i32, i16, i16, i32 }
%struct.client_io_t = type { i32, i32, i8, i32, i32, i32, ptr, i8, %union.pthread_cond_t, %union.pthread_mutex_t, i32, ptr, ptr, ptr, %union.pthread_mutex_t, ptr, i32, ptr, ptr, ptr, ptr, ptr, ptr, i32, i32, ptr }
%union.pthread_cond_t = type { %struct.__pthread_cond_s }
%struct.__pthread_cond_s = type { %union.__atomic_wide_counter, %union.__atomic_wide_counter, [2 x i32], [2 x i32], i32, i32, [2 x i32] }
%union.__atomic_wide_counter = type { i64 }
%union.pthread_mutex_t = type { %struct.__pthread_mutex_s }
%struct.__pthread_mutex_s = type { i32, i32, i32, i32, i32, i16, i16, %struct.__pthread_internal_list }
%struct.__pthread_internal_list = type { ptr, ptr }

@.str.4 = private unnamed_addr constant [29 x i8] c"%s: pthread_mutex_lock(): %m\00", align 1
@.str.11 = private unnamed_addr constant [31 x i8] c"%s: pthread_mutex_unlock(): %m\00", align 1
@__func__.client_io_handler_downnodes = private unnamed_addr constant [28 x i8] c"client_io_handler_downnodes\00", align 1

; Function Attrs: nounwind uwtable
define dso_local void @client_io_handler_downnodes(ptr noundef %0, ptr noundef %1, i32 noundef %2) #0 {
  %4 = alloca ptr, align 8
  %5 = alloca ptr, align 8
  %6 = alloca i32, align 4
  %7 = alloca i32, align 4
  %8 = alloca i32, align 4
  %9 = alloca ptr, align 8
  %10 = alloca ptr, align 8
  %11 = alloca i32, align 4
  %12 = alloca i32, align 4
  %13 = alloca i32, align 4
  store ptr %0, ptr %4, align 8
  store ptr %1, ptr %5, align 8
  store i32 %2, ptr %6, align 4
  call void @llvm.lifetime.start.p0(i64 4, ptr %7) #9
  call void @llvm.lifetime.start.p0(i64 4, ptr %8) #9
  call void @llvm.lifetime.start.p0(i64 8, ptr %9) #9
  call void @llvm.lifetime.start.p0(i64 8, ptr %10) #9
  %14 = load ptr, ptr %4, align 8
  %15 = icmp eq ptr %14, null
  br i1 %15, label %16, label %17

16:                                               ; preds = %3
  store i32 1, ptr %11, align 4
  br label %124

17:                                               ; preds = %3
  br label %18

18:                                               ; preds = %17
  call void @llvm.lifetime.start.p0(i64 4, ptr %12) #9
  %19 = load ptr, ptr %4, align 8
  %20 = getelementptr inbounds nuw %struct.client_io_t, ptr %19, i32 0, i32 14
  %21 = call i32 @pthread_mutex_lock(ptr noundef %20) #9
  store i32 %21, ptr %12, align 4
  %22 = load i32, ptr %12, align 4
  %23 = icmp ne i32 %22, 0
  br i1 %23, label %24, label %27

24:                                               ; preds = %18
  %25 = load i32, ptr %12, align 4
  %26 = call ptr @__errno_location() #10
  store i32 %25, ptr %26, align 4
  call void (ptr, ...) @fatal_abort(ptr noundef @.str.4, ptr noundef @__func__.client_io_handler_downnodes) #11
  unreachable

27:                                               ; preds = %18
  call void @llvm.lifetime.end.p0(i64 4, ptr %12) #9
  br label %28

28:                                               ; preds = %27
  br label %29

29:                                               ; preds = %28
  store i32 0, ptr %7, align 4
  br label %30

30:                                               ; preds = %104, %29
  %31 = load i32, ptr %7, align 4
  %32 = load i32, ptr %6, align 4
  %33 = icmp slt i32 %31, %32
  br i1 %33, label %34, label %107

34:                                               ; preds = %30
  %35 = load ptr, ptr %5, align 8
  %36 = load i32, ptr %7, align 4
  %37 = sext i32 %36 to i64
  %38 = getelementptr inbounds i32, ptr %35, i64 %37
  %39 = load i32, ptr %38, align 4
  store i32 %39, ptr %8, align 4
  %40 = load i32, ptr %8, align 4
  %41 = load ptr, ptr %4, align 8
  %42 = getelementptr inbounds nuw %struct.client_io_t, ptr %41, i32 0, i32 1
  %43 = load i32, ptr %42, align 4
  %44 = icmp sge i32 %40, %43
  br i1 %44, label %48, label %45

45:                                               ; preds = %34
  %46 = load i32, ptr %8, align 4
  %47 = icmp slt i32 %46, 0
  br i1 %47, label %48, label %49

48:                                               ; preds = %45, %34
  br label %104

49:                                               ; preds = %45
  %50 = load ptr, ptr %4, align 8
  %51 = getelementptr inbounds nuw %struct.client_io_t, ptr %50, i32 0, i32 15
  %52 = load ptr, ptr %51, align 8
  %53 = load i32, ptr %8, align 4
  %54 = sext i32 %53 to i64
  %55 = call i32 @slurm_bit_test(ptr noundef %52, i64 noundef %54)
  %56 = icmp ne i32 %55, 0
  br i1 %56, label %57, label %91

57:                                               ; preds = %49
  %58 = load ptr, ptr %4, align 8
  %59 = getelementptr inbounds nuw %struct.client_io_t, ptr %58, i32 0, i32 17
  %60 = load ptr, ptr %59, align 8
  %61 = load i32, ptr %8, align 4
  %62 = sext i32 %61 to i64
  %63 = getelementptr inbounds ptr, ptr %60, i64 %62
  %64 = load ptr, ptr %63, align 8
  %65 = icmp ne ptr %64, null
  br i1 %65, label %66, label %91

66:                                               ; preds = %57
  %67 = load ptr, ptr %4, align 8
  %68 = getelementptr inbounds nuw %struct.client_io_t, ptr %67, i32 0, i32 17
  %69 = load ptr, ptr %68, align 8
  %70 = load i32, ptr %8, align 4
  %71 = sext i32 %70 to i64
  %72 = getelementptr inbounds ptr, ptr %69, i64 %71
  %73 = load ptr, ptr %72, align 8
  %74 = getelementptr inbounds nuw %struct.eio_obj, ptr %73, i32 0, i32 1
  %75 = load ptr, ptr %74, align 8
  store ptr %75, ptr %10, align 8
  %76 = load ptr, ptr %10, align 8
  store ptr %76, ptr %9, align 8
  %77 = load ptr, ptr %9, align 8
  %78 = getelementptr inbounds nuw %struct.server_io_info, ptr %77, i32 0, i32 7
  store i32 0, ptr %78, align 8
  %79 = load ptr, ptr %9, align 8
  %80 = getelementptr inbounds nuw %struct.server_io_info, ptr %79, i32 0, i32 8
  store i32 0, ptr %80, align 4
  %81 = load ptr, ptr %9, align 8
  %82 = getelementptr inbounds nuw %struct.server_io_info, ptr %81, i32 0, i32 2
  store i8 0, ptr %82, align 4
  %83 = load ptr, ptr %4, align 8
  %84 = getelementptr inbounds nuw %struct.client_io_t, ptr %83, i32 0, i32 17
  %85 = load ptr, ptr %84, align 8
  %86 = load i32, ptr %8, align 4
  %87 = sext i32 %86 to i64
  %88 = getelementptr inbounds ptr, ptr %85, i64 %87
  %89 = load ptr, ptr %88, align 8
  %90 = getelementptr inbounds nuw %struct.eio_obj, ptr %89, i32 0, i32 3
  store i8 1, ptr %90, align 8
  br label %103

91:                                               ; preds = %57, %49
  %92 = load ptr, ptr %4, align 8
  %93 = getelementptr inbounds nuw %struct.client_io_t, ptr %92, i32 0, i32 15
  %94 = load ptr, ptr %93, align 8
  %95 = load i32, ptr %8, align 4
  %96 = sext i32 %95 to i64
  call void @bit_set(ptr noundef %94, i64 noundef %96)
  %97 = load ptr, ptr %4, align 8
  %98 = getelementptr inbounds nuw %struct.client_io_t, ptr %97, i32 0, i32 15
  %99 = load ptr, ptr %98, align 8
  %100 = call i32 @bit_set_count(ptr noundef %99)
  %101 = load ptr, ptr %4, align 8
  %102 = getelementptr inbounds nuw %struct.client_io_t, ptr %101, i32 0, i32 16
  store i32 %100, ptr %102, align 8
  br label %103

103:                                              ; preds = %91, %66
  br label %104

104:                                              ; preds = %103, %48
  %105 = load i32, ptr %7, align 4
  %106 = add nsw i32 %105, 1
  store i32 %106, ptr %7, align 4
  br label %30, !llvm.loop !17

107:                                              ; preds = %30
  br label %108

108:                                              ; preds = %107
  call void @llvm.lifetime.start.p0(i64 4, ptr %13) #9
  %109 = load ptr, ptr %4, align 8
  %110 = getelementptr inbounds nuw %struct.client_io_t, ptr %109, i32 0, i32 14
  %111 = call i32 @pthread_mutex_unlock(ptr noundef %110) #9
  store i32 %111, ptr %13, align 4
  %112 = load i32, ptr %13, align 4
  %113 = icmp ne i32 %112, 0
  br i1 %113, label %114, label %117

114:                                              ; preds = %108
  %115 = load i32, ptr %13, align 4
  %116 = call ptr @__errno_location() #10
  store i32 %115, ptr %116, align 4
  call void (ptr, ...) @fatal_abort(ptr noundef @.str.11, ptr noundef @__func__.client_io_handler_downnodes) #11
  unreachable

117:                                              ; preds = %108
  call void @llvm.lifetime.end.p0(i64 4, ptr %13) #9
  br label %118

118:                                              ; preds = %117
  br label %119

119:                                              ; preds = %118
  %120 = load ptr, ptr %4, align 8
  %121 = getelementptr inbounds nuw %struct.client_io_t, ptr %120, i32 0, i32 13
  %122 = load ptr, ptr %121, align 8
  %123 = call i32 @eio_signal_wakeup(ptr noundef %122)
  store i32 0, ptr %11, align 4
  br label %124

124:                                              ; preds = %119, %16
  call void @llvm.lifetime.end.p0(i64 8, ptr %10) #9
  call void @llvm.lifetime.end.p0(i64 8, ptr %9) #9
  call void @llvm.lifetime.end.p0(i64 4, ptr %8) #9
  call void @llvm.lifetime.end.p0(i64 4, ptr %7) #9
  %125 = load i32, ptr %11, align 4
  switch i32 %125, label %127 [
    i32 0, label %126
    i32 1, label %126
  ]

126:                                              ; preds = %124, %124
  ret void

127:                                              ; preds = %124
  unreachable
}