; Function Attrs: nounwind uwtable
define dso_local void @client_io_handler_downnodes(ptr noundef %0, ptr noundef readonly captures(none) %1, i32 noundef %2) local_unnamed_addr #0 {
  %4 = icmp eq ptr %0, null
  br i1 %4, label %51, label %5

5:                                                ; preds = %3
  %6 = getelementptr inbounds nuw i8, ptr %0, i64 160
  %7 = tail call i32 @pthread_mutex_lock(ptr noundef nonnull %6) #10
  %.not = icmp eq i32 %7, 0
  br i1 %.not, label %.preheader, label %13

.preheader:                                       ; preds = %5
  %8 = icmp sgt i32 %2, 0
  br i1 %8, label %.lr.ph, label %._crit_edge

.lr.ph:                                           ; preds = %.preheader
  %9 = getelementptr inbounds nuw i8, ptr %0, i64 4
  %10 = getelementptr inbounds nuw i8, ptr %0, i64 200
  %11 = getelementptr inbounds nuw i8, ptr %0, i64 216
  %12 = getelementptr inbounds nuw i8, ptr %0, i64 208
  %wide.trip.count = zext nneg i32 %2 to i64
  br label %15

13:                                               ; preds = %5
  %14 = tail call ptr @__errno_location() #11
  store i32 %7, ptr %14, align 4
  tail call void (ptr, ...) @fatal_abort(ptr noundef nonnull @.str.4, ptr noundef nonnull @__func__.client_io_handler_downnodes) #12
  unreachable

15:                                               ; preds = %.lr.ph, %43
  %indvars.iv = phi i64 [ 0, %.lr.ph ], [ %indvars.iv.next, %43 ]
  %16 = getelementptr inbounds nuw i32, ptr %1, i64 %indvars.iv
  %17 = load i32, ptr %16, align 4
  %18 = load i32, ptr %9, align 4
  %19 = icmp sge i32 %17, %18
  %20 = icmp slt i32 %17, 0
  %or.cond = or i1 %20, %19
  br i1 %or.cond, label %43, label %21

21:                                               ; preds = %15
  %22 = load ptr, ptr %10, align 8
  %23 = zext nneg i32 %17 to i64
  %24 = tail call i32 @slurm_bit_test(ptr noundef %22, i64 noundef %23) #10
  %.not38 = icmp eq i32 %24, 0
  br i1 %.not38, label %39, label %25

25:                                               ; preds = %21
  %26 = load ptr, ptr %11, align 8
  %27 = getelementptr inbounds nuw ptr, ptr %26, i64 %23
  %28 = load ptr, ptr %27, align 8
  %.not39 = icmp eq ptr %28, null
  br i1 %.not39, label %39, label %29

29:                                               ; preds = %25
  %30 = getelementptr inbounds nuw i8, ptr %28, i64 8
  %31 = load ptr, ptr %30, align 8
  %32 = getelementptr inbounds nuw i8, ptr %31, i64 48
  store i32 0, ptr %32, align 8
  %33 = getelementptr inbounds nuw i8, ptr %31, i64 52
  store i32 0, ptr %33, align 4
  %34 = getelementptr inbounds nuw i8, ptr %31, i64 12
  store i8 0, ptr %34, align 4
  %35 = load ptr, ptr %11, align 8
  %36 = getelementptr inbounds nuw ptr, ptr %35, i64 %23
  %37 = load ptr, ptr %36, align 8
  %38 = getelementptr inbounds nuw i8, ptr %37, i64 24
  store i8 1, ptr %38, align 8
  br label %43

39:                                               ; preds = %25, %21
  %40 = load ptr, ptr %10, align 8
  tail call void @bit_set(ptr noundef %40, i64 noundef %23) #10
  %41 = load ptr, ptr %10, align 8
  %42 = tail call i32 @bit_set_count(ptr noundef %41) #10
  store i32 %42, ptr %12, align 8
  br label %43

43:                                               ; preds = %29, %39, %15
  %indvars.iv.next = add nuw nsw i64 %indvars.iv, 1
  %exitcond.not = icmp eq i64 %indvars.iv.next, %wide.trip.count
  br i1 %exitcond.not, label %._crit_edge, label %15, !llvm.loop !19

._crit_edge:                                      ; preds = %43, %.preheader
  %44 = tail call i32 @pthread_mutex_unlock(ptr noundef nonnull %6) #10
  %.not37 = icmp eq i32 %44, 0
  br i1 %.not37, label %47, label %45

45:                                               ; preds = %._crit_edge
  %46 = tail call ptr @__errno_location() #11
  store i32 %44, ptr %46, align 4
  tail call void (ptr, ...) @fatal_abort(ptr noundef nonnull @.str.11, ptr noundef nonnull @__func__.client_io_handler_downnodes) #12
  unreachable

47:                                               ; preds = %._crit_edge
  %48 = getelementptr inbounds nuw i8, ptr %0, i64 152
  %49 = load ptr, ptr %48, align 8
  %50 = tail call i32 @eio_signal_wakeup(ptr noundef %49) #10
  br label %51

51:                                               ; preds = %3, %47
  ret void
}